; Function Attrs: nounwind uwtable
define internal fastcc void @_jumbleInferClause(ptr noundef %0, ptr noundef nonnull readonly captures(none) %1) unnamed_addr #0 {
  %3 = getelementptr inbounds nuw i8, ptr %1, i64 8
  %4 = load ptr, ptr %3, align 8
  tail call fastcc void @_jumbleNode(ptr noundef %0, ptr noundef %4)
  %5 = getelementptr inbounds nuw i8, ptr %1, i64 16
  %6 = load ptr, ptr %5, align 8
  tail call fastcc void @_jumbleNode(ptr noundef %0, ptr noundef %6)
  %7 = getelementptr inbounds nuw i8, ptr %1, i64 24
  %8 = load ptr, ptr %7, align 8
  %.not = icmp eq ptr %8, null
  br i1 %.not, label %25, label %9

9:                                                ; preds = %2
  %10 = tail call i64 @strlen(ptr noundef nonnull dereferenceable(1) %8) #8
  %11 = add i64 %10, 1
  %12 = load ptr, ptr %0, align 8
  %13 = getelementptr inbounds nuw i8, ptr %0, i64 8
  %14 = load i64, ptr %13, align 8
  %.not23.i = icmp eq i64 %11, 0
  br i1 %.not23.i, label %AppendJumble.exit, label %.lr.ph.i

.lr.ph.i:                                         ; preds = %9, %18
  %.026.i = phi ptr [ %23, %18 ], [ %8, %9 ]
  %.02125.i = phi i64 [ %24, %18 ], [ %11, %9 ]
  %.02224.i = phi i64 [ %22, %18 ], [ %14, %9 ]
  %15 = icmp ugt i64 %.02224.i, 1023
  br i1 %15, label %16, label %18

16:                                               ; preds = %.lr.ph.i
  %17 = tail call i64 @hash_bytes_extended(ptr noundef %12, i32 noundef 1024, i64 noundef 0) #9
  store i64 %17, ptr %12, align 1
  br label %18

18:                                               ; preds = %16, %.lr.ph.i
  %.1.i = phi i64 [ 8, %16 ], [ %.02224.i, %.lr.ph.i ]
  %19 = sub nuw nsw i64 1024, %.1.i
  %20 = tail call i64 @llvm.umin.i64(i64 %.02125.i, i64 %19)
  %21 = getelementptr inbounds nuw i8, ptr %12, i64 %.1.i
  tail call void @llvm.memcpy.p0.p0.i64(ptr noundef nonnull align 1 dereferenceable(1) %21, ptr noundef nonnull align 1 dereferenceable(1) %.026.i, i64 %20, i1 false)
  %22 = add nuw nsw i64 %20, %.1.i
  %23 = getelementptr inbounds nuw i8, ptr %.026.i, i64 %20
  %24 = sub i64 %.02125.i, %20
  %.not.i = icmp eq i64 %24, 0
  br i1 %.not.i, label %AppendJumble.exit, label %.lr.ph.i, !llvm.loop !7

AppendJumble.exit:                                ; preds = %18, %9
  %.022.lcssa.i = phi i64 [ %14, %9 ], [ %22, %18 ]
  store i64 %.022.lcssa.i, ptr %13, align 8
  br label %25

25:                                               ; preds = %AppendJumble.exit, %2
  ret void
}